; Function Attrs: mustprogress uwtable
define noundef range(i32 -2147483648, 1) i32 @_Z15fdt_parse_clintPKvPmPKc(ptr noundef %0, ptr noundef writeonly captures(address_is_null) %1, ptr noundef %2) local_unnamed_addr #3 {
  %4 = alloca i32, align 4
  %5 = tail call i32 @fdt_node_offset_by_compatible(ptr noundef %0, i32 noundef -1, ptr noundef %2)
  %6 = icmp slt i32 %5, 0
  br i1 %6, label %26, label %7

7:                                                ; preds = %3
  call void @llvm.lifetime.start.p0(i64 4, ptr nonnull %4) #22
  %8 = tail call i32 @fdt_parent_offset(ptr noundef %0, i32 noundef %5)
  %9 = icmp slt i32 %8, 0
  br i1 %9, label %_Z22fdt_get_node_addr_sizePKviPmS1_PKc.exit, label %10

10:                                               ; preds = %7
  %11 = tail call i32 @fdt_address_cells(ptr noundef %0, i32 noundef %8)
  %12 = icmp slt i32 %11, 1
  br i1 %12, label %_Z22fdt_get_node_addr_sizePKviPmS1_PKc.exit, label %13

13:                                               ; preds = %10
  %14 = tail call i32 @fdt_size_cells(ptr noundef %0, i32 noundef %8)
  %15 = icmp slt i32 %14, 0
  br i1 %15, label %_Z22fdt_get_node_addr_sizePKviPmS1_PKc.exit, label %16

16:                                               ; preds = %13
  %17 = call ptr @fdt_getprop(ptr noundef %0, i32 noundef %5, ptr noundef nonnull @.str.28, ptr noundef nonnull %4)
  %.not46.i = icmp eq ptr %17, null
  br i1 %.not46.i, label %_Z22fdt_get_node_addr_sizePKviPmS1_PKc.exit, label %18

18:                                               ; preds = %16
  %.not47.i = icmp eq ptr %1, null
  br i1 %.not47.i, label %_Z22fdt_get_node_addr_sizePKviPmS1_PKc.exit, label %.lr.ph.i

.lr.ph.i:                                         ; preds = %18, %.lr.ph.i
  %.053.i = phi i64 [ %23, %.lr.ph.i ], [ 0, %18 ]
  %.03452.i = phi ptr [ %20, %.lr.ph.i ], [ %17, %18 ]
  %.03651.i = phi i32 [ %24, %.lr.ph.i ], [ 0, %18 ]
  %19 = shl i64 %.053.i, 32
  %20 = getelementptr inbounds nuw i8, ptr %.03452.i, i64 4
  %21 = load i32, ptr %.03452.i, align 4, !tbaa !95
  %rev.i.i = call noundef i32 @llvm.bswap.i32(i32 %21)
  %22 = zext i32 %rev.i.i to i64
  %23 = or disjoint i64 %19, %22
  %24 = add nuw nsw i32 %.03651.i, 1
  %exitcond.not.i = icmp eq i32 %24, %11
  br i1 %exitcond.not.i, label %._crit_edge.i, label %.lr.ph.i, !llvm.loop !105

._crit_edge.i:                                    ; preds = %.lr.ph.i
  store i64 %23, ptr %1, align 8, !tbaa !52
  br label %_Z22fdt_get_node_addr_sizePKviPmS1_PKc.exit

_Z22fdt_get_node_addr_sizePKviPmS1_PKc.exit:      ; preds = %18, %._crit_edge.i, %7, %10, %13, %16
  %.035.i = phi i1 [ false, %7 ], [ false, %10 ], [ false, %13 ], [ false, %16 ], [ true, %._crit_edge.i ], [ true, %18 ]
  call void @llvm.lifetime.end.p0(i64 4, ptr nonnull %4) #22
  %25 = icmp ne ptr %1, null
  %or.cond = and i1 %25, %.035.i
  %. = select i1 %or.cond, i32 0, i32 -19
  br label %26

26:                                               ; preds = %_Z22fdt_get_node_addr_sizePKviPmS1_PKc.exit, %3
  %.0 = phi i32 [ %5, %3 ], [ %., %_Z22fdt_get_node_addr_sizePKviPmS1_PKc.exit ]
  ret i32 %.0
}